; Function Attrs: nounwind uwtable
define internal i32 @fold_kfold_tostr_kint(ptr noundef %0) #0 {
  %2 = getelementptr inbounds nuw i8, ptr %0, i64 186
  %3 = load i16, ptr %2, align 2, !tbaa !28
  %4 = icmp eq i16 %3, 0
  %5 = getelementptr inbounds nuw i8, ptr %0, i64 128
  %6 = load ptr, ptr %5, align 8, !tbaa !44
  %7 = getelementptr inbounds nuw i8, ptr %0, i64 192
  %8 = load i32, ptr %7, align 8, !tbaa !28
  br i1 %4, label %9, label %11

9:                                                ; preds = %1
  %10 = tail call ptr @lj_strfmt_int(ptr noundef %6, i32 noundef %8) #12
  br label %13

11:                                               ; preds = %1
  %12 = tail call ptr @lj_strfmt_char(ptr noundef %6, i32 noundef %8) #12
  br label %13

13:                                               ; preds = %11, %9
  %14 = phi ptr [ %10, %9 ], [ %12, %11 ]
  %15 = tail call i32 @lj_ir_kgc(ptr noundef nonnull %0, ptr noundef %14, i32 noundef 4) #12
  ret i32 %15
}